; Function Attrs: nounwind uwtable
define internal ptr @unicode_mod(ptr noundef %0, ptr noundef %1) #0 {
  %3 = getelementptr i8, ptr %0, i64 8
  %.val = load ptr, ptr %3, align 8, !tbaa !187
  %4 = getelementptr i8, ptr %.val, i64 168
  %.val4 = load i64, ptr %4, align 8, !tbaa !188
  %5 = and i64 %.val4, 268435456
  %.not = icmp eq i64 %5, 0
  br i1 %.not, label %8, label %6

6:                                                ; preds = %2
  %7 = tail call ptr @PyUnicode_Format(ptr noundef nonnull %0, ptr noundef %1)
  br label %8

8:                                                ; preds = %2, %6
  %.0 = phi ptr [ %7, %6 ], [ @_Py_NotImplementedStruct, %2 ]
  ret ptr %.0
}